target datalayout = "e-m:e-p270:32:32-p271:32:32-p272:64:64-i64:64-i128:128-f80:128-n8:16:32:64-S128"
target triple = "x86_64-pc-linux-gnu"

@.str.18 = private unnamed_addr constant [21 x i8] c"Permutation FAILED.\0A\00", align 1

; Function Attrs: inlinehint nounwind uwtable
define internal i32 @If_CluWordNum(i32 noundef %0) #3 {
  %2 = alloca i32, align 4
  store i32 %0, ptr %2, align 4, !tbaa !3
  %3 = load i32, ptr %2, align 4, !tbaa !3
  %4 = icmp sle i32 %3, 6
  br i1 %4, label %5, label %6

5:                                                ; preds = %1
  br label %10

6:                                                ; preds = %1
  %7 = load i32, ptr %2, align 4, !tbaa !3
  %8 = sub nsw i32 %7, 6
  %9 = shl i32 1, %8
  br label %10

10:                                               ; preds = %6, %5
  %11 = phi i32 [ 1, %5 ], [ %9, %6 ]
  ret i32 %11
}

; Function Attrs: inlinehint nounwind uwtable
define internal i32 @If_CluEqual(ptr noundef %0, ptr noundef %1, i32 noundef %2) #3 {
  %4 = alloca i32, align 4
  %5 = alloca ptr, align 8
  %6 = alloca ptr, align 8
  %7 = alloca i32, align 4
  %8 = alloca i32, align 4
  %9 = alloca i32, align 4
  %10 = alloca i32, align 4
  store ptr %0, ptr %5, align 8, !tbaa !51
  store ptr %1, ptr %6, align 8, !tbaa !51
  store i32 %2, ptr %7, align 4, !tbaa !3
  call void @llvm.lifetime.start.p0(i64 4, ptr %8) #11
  call void @llvm.lifetime.start.p0(i64 4, ptr %9) #11
  %11 = load i32, ptr %7, align 4, !tbaa !3
  %12 = call i32 @If_CluWordNum(i32 noundef %11)
  store i32 %12, ptr %9, align 4, !tbaa !3
  store i32 0, ptr %8, align 4, !tbaa !3
  br label %13

13:                                               ; preds = %31, %3
  %14 = load i32, ptr %8, align 4, !tbaa !3
  %15 = load i32, ptr %9, align 4, !tbaa !3
  %16 = icmp slt i32 %14, %15
  br i1 %16, label %17, label %34

17:                                               ; preds = %13
  %18 = load ptr, ptr %5, align 8, !tbaa !51
  %19 = load i32, ptr %8, align 4, !tbaa !3
  %20 = sext i32 %19 to i64
  %21 = getelementptr inbounds i64, ptr %18, i64 %20
  %22 = load i64, ptr %21, align 8, !tbaa !79
  %23 = load ptr, ptr %6, align 8, !tbaa !51
  %24 = load i32, ptr %8, align 4, !tbaa !3
  %25 = sext i32 %24 to i64
  %26 = getelementptr inbounds i64, ptr %23, i64 %25
  %27 = load i64, ptr %26, align 8, !tbaa !79
  %28 = icmp ne i64 %22, %27
  br i1 %28, label %29, label %30

29:                                               ; preds = %17
  store i32 0, ptr %4, align 4
  store i32 1, ptr %10, align 4
  br label %35

30:                                               ; preds = %17
  br label %31

31:                                               ; preds = %30
  %32 = load i32, ptr %8, align 4, !tbaa !3
  %33 = add nsw i32 %32, 1
  store i32 %33, ptr %8, align 4, !tbaa !3
  br label %13, !llvm.loop !105

34:                                               ; preds = %13
  store i32 1, ptr %4, align 4
  store i32 1, ptr %10, align 4
  br label %35

35:                                               ; preds = %34, %29
  call void @llvm.lifetime.end.p0(i64 4, ptr %9) #11
  call void @llvm.lifetime.end.p0(i64 4, ptr %8) #11
  %36 = load i32, ptr %4, align 4
  ret i32 %36
}

; Function Attrs: nounwind uwtable
define void @If_CluCheckPerm(ptr noundef %0, ptr noundef %1, i32 noundef %2, ptr noundef %3, ptr noundef %4) #0 {
  %6 = alloca ptr, align 8
  %7 = alloca ptr, align 8
  %8 = alloca i32, align 4
  %9 = alloca ptr, align 8
  %10 = alloca ptr, align 8
  %11 = alloca i32, align 4
  store ptr %0, ptr %6, align 8, !tbaa !51
  store ptr %1, ptr %7, align 8, !tbaa !51
  store i32 %2, ptr %8, align 4, !tbaa !3
  store ptr %3, ptr %9, align 8, !tbaa !21
  store ptr %4, ptr %10, align 8, !tbaa !21
  call void @llvm.lifetime.start.p0(i64 4, ptr %11) #11
  store i32 0, ptr %11, align 4, !tbaa !3
  br label %12

12:                                               ; preds = %23, %5
  %13 = load i32, ptr %11, align 4, !tbaa !3
  %14 = load i32, ptr %8, align 4, !tbaa !3
  %15 = icmp slt i32 %13, %14
  br i1 %15, label %16, label %26

16:                                               ; preds = %12
  %17 = load ptr, ptr %7, align 8, !tbaa !51
  %18 = load i32, ptr %8, align 4, !tbaa !3
  %19 = load ptr, ptr %9, align 8, !tbaa !21
  %20 = load ptr, ptr %10, align 8, !tbaa !21
  %21 = load i32, ptr %11, align 4, !tbaa !3
  %22 = load i32, ptr %11, align 4, !tbaa !3
  call void @If_CluMoveVar(ptr noundef %17, i32 noundef %18, ptr noundef %19, ptr noundef %20, i32 noundef %21, i32 noundef %22)
  br label %23

23:                                               ; preds = %16
  %24 = load i32, ptr %11, align 4, !tbaa !3
  %25 = add nsw i32 %24, 1
  store i32 %25, ptr %11, align 4, !tbaa !3
  br label %12, !llvm.loop !164

26:                                               ; preds = %12
  %27 = load ptr, ptr %6, align 8, !tbaa !51
  %28 = load ptr, ptr %7, align 8, !tbaa !51
  %29 = load i32, ptr %8, align 4, !tbaa !3
  %30 = call i32 @If_CluEqual(ptr noundef %27, ptr noundef %28, i32 noundef %29)
  %31 = icmp ne i32 %30, 0
  br i1 %31, label %34, label %32

32:                                               ; preds = %26
  %33 = call i32 (ptr, ...) @printf(ptr noundef @.str.18)
  br label %34

34:                                               ; preds = %32, %26
  call void @llvm.lifetime.end.p0(i64 4, ptr %11) #11
  ret void
}