; Function Attrs: nofree nounwind uwtable
define void @If_CluCheckPerm(ptr noundef readonly captures(none) %0, ptr noundef captures(none) %1, i32 noundef %2, ptr noundef captures(none) %3, ptr noundef captures(none) %4) local_unnamed_addr #6 {
  %6 = icmp sgt i32 %2, 0
  br i1 %6, label %.lr.ph, label %.lr.ph.preheader.i

.lr.ph:                                           ; preds = %5, %.lr.ph
  %.014 = phi i32 [ %7, %.lr.ph ], [ 0, %5 ]
  tail call void @If_CluMoveVar(ptr noundef %1, i32 noundef %2, ptr noundef %3, ptr noundef %4, i32 noundef %.014, i32 noundef %.014)
  %7 = add nuw nsw i32 %.014, 1
  %exitcond.not = icmp eq i32 %7, %2
  br i1 %exitcond.not, label %._crit_edge, label %.lr.ph, !llvm.loop !172

._crit_edge:                                      ; preds = %.lr.ph
  %8 = icmp slt i32 %2, 7
  %9 = add nsw i32 %2, -6
  %10 = shl nuw i32 1, %9
  %11 = select i1 %8, i32 1, i32 %10
  %12 = icmp sgt i32 %11, 0
  br i1 %12, label %.lr.ph.preheader.i, label %If_CluEqual.exit.thread

.lr.ph.preheader.i:                               ; preds = %5, %._crit_edge
  %13 = phi i32 [ %11, %._crit_edge ], [ 1, %5 ]
  %wide.trip.count.i = zext nneg i32 %13 to i64
  br label %.lr.ph.i

14:                                               ; preds = %.lr.ph.i
  %indvars.iv.next.i = add nuw nsw i64 %indvars.iv.i, 1
  %exitcond.not.i = icmp eq i64 %indvars.iv.next.i, %wide.trip.count.i
  br i1 %exitcond.not.i, label %If_CluEqual.exit.thread, label %.lr.ph.i, !llvm.loop !109

.lr.ph.i:                                         ; preds = %14, %.lr.ph.preheader.i
  %indvars.iv.i = phi i64 [ 0, %.lr.ph.preheader.i ], [ %indvars.iv.next.i, %14 ]
  %15 = getelementptr inbounds nuw i64, ptr %0, i64 %indvars.iv.i
  %16 = load i64, ptr %15, align 8, !tbaa !16
  %17 = getelementptr inbounds nuw i64, ptr %1, i64 %indvars.iv.i
  %18 = load i64, ptr %17, align 8, !tbaa !16
  %.not.i = icmp eq i64 %16, %18
  br i1 %.not.i, label %14, label %If_CluEqual.exit

If_CluEqual.exit:                                 ; preds = %.lr.ph.i
  %puts = tail call i32 @puts(ptr nonnull dereferenceable(1) @str.9)
  br label %If_CluEqual.exit.thread

If_CluEqual.exit.thread:                          ; preds = %14, %._crit_edge, %If_CluEqual.exit
  ret void
}